target datalayout = "e-m:e-p270:32:32-p271:32:32-p272:64:64-i64:64-i128:128-f80:128-n8:16:32:64-S128"
target triple = "x86_64-pc-linux-gnu"

; Function Attrs: nounwind uwtable
define hidden i32 @mbedtls_lms_error_from_psa(i32 noundef %0) #0 {
  %2 = alloca i32, align 4
  %3 = alloca i32, align 4
  store i32 %0, ptr %3, align 4, !tbaa !3
  %4 = load i32, ptr %3, align 4, !tbaa !3
  switch i32 %4, label %10 [
    i32 0, label %5
    i32 -147, label %6
    i32 -134, label %7
    i32 -138, label %8
    i32 -135, label %9
  ]

5:                                                ; preds = %1
  store i32 0, ptr %2, align 4
  br label %11

6:                                                ; preds = %1
  store i32 -112, ptr %2, align 4
  br label %11

7:                                                ; preds = %1
  store i32 -114, ptr %2, align 4
  br label %11

8:                                                ; preds = %1
  store i32 -25, ptr %2, align 4
  br label %11

9:                                                ; preds = %1
  store i32 -17, ptr %2, align 4
  br label %11

10:                                               ; preds = %1
  store i32 -1, ptr %2, align 4
  br label %11

11:                                               ; preds = %10, %9, %8, %7, %6, %5
  %12 = load i32, ptr %2, align 4
  ret i32 %12
}