; Function Attrs: mustprogress nofree norecurse nosync nounwind willreturn memory(none) uwtable
define hidden range(i32 -114, 1) i32 @mbedtls_lms_error_from_psa(i32 noundef %0) local_unnamed_addr #0 {
  switch i32 %0, label %6 [
    i32 0, label %7
    i32 -147, label %2
    i32 -134, label %3
    i32 -138, label %4
    i32 -135, label %5
  ]

2:                                                ; preds = %1
  br label %7

3:                                                ; preds = %1
  br label %7

4:                                                ; preds = %1
  br label %7

5:                                                ; preds = %1
  br label %7

6:                                                ; preds = %1
  br label %7

7:                                                ; preds = %1, %6, %5, %4, %3, %2
  %.0 = phi i32 [ -1, %6 ], [ -17, %5 ], [ -25, %4 ], [ -114, %3 ], [ -112, %2 ], [ %0, %1 ]
  ret i32 %.0
}